; Function Attrs: nounwind uwtable
define ptr @l_Array_foldlMUnsafe_fold___at_Lean_Meta_DiscrTree_Trie_fold___spec__2___rarg(ptr noundef %0, ptr noundef %1, ptr noundef readonly captures(none) %2, i64 noundef %3, i64 noundef %4, ptr noundef %5) local_unnamed_addr #2 {
  %.not69 = icmp eq i64 %3, %4
  br i1 %.not69, label %.._crit_edge_crit_edge, label %.lr.ph

.._crit_edge_crit_edge:                           ; preds = %6
  %.pre = ptrtoint ptr %1 to i64
  %.pre72 = and i64 %.pre, 1
  br label %._crit_edge

.lr.ph:                                           ; preds = %6
  %7 = getelementptr inbounds nuw i8, ptr %2, i64 24
  %8 = ptrtoint ptr %0 to i64
  %9 = and i64 %8, 1
  %.not67 = icmp eq i64 %9, 0
  %10 = ptrtoint ptr %1 to i64
  %11 = and i64 %10, 1
  %.not68 = icmp eq i64 %11, 0
  br label %12

12:                                               ; preds = %.lr.ph, %lean_dec.exit33
  %.02871 = phi i64 [ %3, %.lr.ph ], [ %23, %lean_dec.exit33 ]
  %.03070 = phi ptr [ %5, %.lr.ph ], [ %64, %lean_dec.exit33 ]
  %13 = getelementptr inbounds nuw [0 x ptr], ptr %7, i64 0, i64 %.02871
  %14 = load ptr, ptr %13, align 8, !tbaa !9
  %15 = ptrtoint ptr %14 to i64
  %16 = and i64 %15, 1
  %.not.i44 = icmp eq i64 %16, 0
  br i1 %.not.i44, label %17, label %lean_array_uget.exit

17:                                               ; preds = %12
  %.val.i.i = load i32, ptr %14, align 4, !tbaa !4
  %18 = icmp sgt i32 %.val.i.i, 0
  br i1 %18, label %19, label %21, !prof !11

19:                                               ; preds = %17
  %20 = add nuw i32 %.val.i.i, 1
  store i32 %20, ptr %14, align 4, !tbaa !4
  br label %lean_array_uget.exit

21:                                               ; preds = %17
  %.not.i.i = icmp eq i32 %.val.i.i, 0
  br i1 %.not.i.i, label %lean_array_uget.exit, label %22

22:                                               ; preds = %21
  tail call void @lean_inc_ref_cold(ptr noundef nonnull %14) #7
  br label %lean_array_uget.exit

lean_array_uget.exit:                             ; preds = %12, %19, %21, %22
  %23 = add i64 %.02871, 1
  %24 = getelementptr inbounds nuw i8, ptr %14, i64 8
  %25 = load ptr, ptr %24, align 8, !tbaa !9
  %26 = ptrtoint ptr %25 to i64
  %27 = and i64 %26, 1
  %.not64 = icmp eq i64 %27, 0
  br i1 %.not64, label %28, label %lean_inc.exit37

28:                                               ; preds = %lean_array_uget.exit
  %.val.i = load i32, ptr %25, align 4, !tbaa !4
  %29 = icmp sgt i32 %.val.i, 0
  br i1 %29, label %30, label %32, !prof !11

30:                                               ; preds = %28
  %31 = add nuw i32 %.val.i, 1
  store i32 %31, ptr %25, align 4, !tbaa !4
  br label %lean_inc.exit37

32:                                               ; preds = %28
  %.not.i45 = icmp eq i32 %.val.i, 0
  br i1 %.not.i45, label %lean_inc.exit37, label %33

33:                                               ; preds = %32
  tail call void @lean_inc_ref_cold(ptr noundef nonnull %25) #7
  br label %lean_inc.exit37

lean_inc.exit37:                                  ; preds = %33, %32, %30, %lean_array_uget.exit
  %34 = getelementptr inbounds nuw i8, ptr %14, i64 16
  %35 = load ptr, ptr %34, align 8, !tbaa !9
  %36 = ptrtoint ptr %35 to i64
  %37 = and i64 %36, 1
  %.not65 = icmp eq i64 %37, 0
  br i1 %.not65, label %38, label %lean_inc.exit36

38:                                               ; preds = %lean_inc.exit37
  %.val.i46 = load i32, ptr %35, align 4, !tbaa !4
  %39 = icmp sgt i32 %.val.i46, 0
  br i1 %39, label %40, label %42, !prof !11

40:                                               ; preds = %38
  %41 = add nuw i32 %.val.i46, 1
  store i32 %41, ptr %35, align 4, !tbaa !4
  br label %lean_inc.exit36

42:                                               ; preds = %38
  %.not.i47 = icmp eq i32 %.val.i46, 0
  br i1 %.not.i47, label %lean_inc.exit36, label %43

43:                                               ; preds = %42
  tail call void @lean_inc_ref_cold(ptr noundef nonnull %35) #7
  br label %lean_inc.exit36

lean_inc.exit36:                                  ; preds = %43, %42, %40, %lean_inc.exit37
  br i1 %.not.i44, label %44, label %lean_dec.exit34

44:                                               ; preds = %lean_inc.exit36
  %45 = load i32, ptr %14, align 4, !tbaa !4
  %46 = icmp sgt i32 %45, 1
  br i1 %46, label %47, label %49, !prof !11

47:                                               ; preds = %44
  %48 = add nsw i32 %45, -1
  store i32 %48, ptr %14, align 4, !tbaa !4
  br label %lean_dec.exit34

49:                                               ; preds = %44
  %.not.i = icmp eq i32 %45, 0
  br i1 %.not.i, label %lean_dec.exit34, label %50

50:                                               ; preds = %49
  tail call void @lean_dec_ref_cold(ptr noundef nonnull %14) #7
  br label %lean_dec.exit34

lean_dec.exit34:                                  ; preds = %50, %49, %47, %lean_inc.exit36
  br i1 %.not67, label %51, label %lean_inc.exit35

51:                                               ; preds = %lean_dec.exit34
  %.val.i49 = load i32, ptr %0, align 4, !tbaa !4
  %52 = icmp sgt i32 %.val.i49, 0
  br i1 %52, label %53, label %55, !prof !11

53:                                               ; preds = %51
  %54 = add nuw i32 %.val.i49, 1
  store i32 %54, ptr %0, align 4, !tbaa !4
  br label %lean_inc.exit35

55:                                               ; preds = %51
  %.not.i50 = icmp eq i32 %.val.i49, 0
  br i1 %.not.i50, label %lean_inc.exit35, label %56

56:                                               ; preds = %55
  tail call void @lean_inc_ref_cold(ptr noundef nonnull %0) #7
  br label %lean_inc.exit35

lean_inc.exit35:                                  ; preds = %56, %55, %53, %lean_dec.exit34
  %57 = tail call ptr @lean_array_push(ptr noundef %0, ptr noundef %25) #7
  br i1 %.not68, label %58, label %lean_inc.exit

58:                                               ; preds = %lean_inc.exit35
  %.val.i52 = load i32, ptr %1, align 4, !tbaa !4
  %59 = icmp sgt i32 %.val.i52, 0
  br i1 %59, label %60, label %62, !prof !11

60:                                               ; preds = %58
  %61 = add nuw i32 %.val.i52, 1
  store i32 %61, ptr %1, align 4, !tbaa !4
  br label %lean_inc.exit

62:                                               ; preds = %58
  %.not.i53 = icmp eq i32 %.val.i52, 0
  br i1 %.not.i53, label %lean_inc.exit, label %63

63:                                               ; preds = %62
  tail call void @lean_inc_ref_cold(ptr noundef nonnull %1) #7
  br label %lean_inc.exit

lean_inc.exit:                                    ; preds = %63, %62, %60, %lean_inc.exit35
  %64 = tail call ptr @l_Lean_Meta_DiscrTree_Trie_foldM___at_Lean_Meta_DiscrTree_Trie_fold___spec__1___rarg(ptr noundef %57, ptr noundef %1, ptr noundef %.03070, ptr noundef %35)
  br i1 %.not65, label %65, label %lean_dec.exit33

65:                                               ; preds = %lean_inc.exit
  %66 = load i32, ptr %35, align 4, !tbaa !4
  %67 = icmp sgt i32 %66, 1
  br i1 %67, label %68, label %70, !prof !11

68:                                               ; preds = %65
  %69 = add nsw i32 %66, -1
  store i32 %69, ptr %35, align 4, !tbaa !4
  br label %lean_dec.exit33

70:                                               ; preds = %65
  %.not.i38 = icmp eq i32 %66, 0
  br i1 %.not.i38, label %lean_dec.exit33, label %71

71:                                               ; preds = %70
  tail call void @lean_dec_ref_cold(ptr noundef nonnull %35) #7
  br label %lean_dec.exit33

._crit_edge:                                      ; preds = %lean_dec.exit33, %.._crit_edge_crit_edge
  %.pre-phi73 = phi i64 [ %.pre72, %.._crit_edge_crit_edge ], [ %11, %lean_dec.exit33 ]
  %.030.lcssa = phi ptr [ %5, %.._crit_edge_crit_edge ], [ %64, %lean_dec.exit33 ]
  %.not62 = icmp eq i64 %.pre-phi73, 0
  br i1 %.not62, label %72, label %lean_dec.exit32

72:                                               ; preds = %._crit_edge
  %73 = load i32, ptr %1, align 4, !tbaa !4
  %74 = icmp sgt i32 %73, 1
  br i1 %74, label %75, label %77, !prof !11

75:                                               ; preds = %72
  %76 = add nsw i32 %73, -1
  store i32 %76, ptr %1, align 4, !tbaa !4
  br label %lean_dec.exit32

77:                                               ; preds = %72
  %.not.i40 = icmp eq i32 %73, 0
  br i1 %.not.i40, label %lean_dec.exit32, label %78

78:                                               ; preds = %77
  tail call void @lean_dec_ref_cold(ptr noundef nonnull %1) #7
  br label %lean_dec.exit32

lean_dec.exit32:                                  ; preds = %78, %77, %75, %._crit_edge
  %79 = ptrtoint ptr %0 to i64
  %80 = and i64 %79, 1
  %.not63 = icmp eq i64 %80, 0
  br i1 %.not63, label %81, label %88

81:                                               ; preds = %lean_dec.exit32
  %82 = load i32, ptr %0, align 4, !tbaa !4
  %83 = icmp sgt i32 %82, 1
  br i1 %83, label %84, label %86, !prof !11

84:                                               ; preds = %81
  %85 = add nsw i32 %82, -1
  store i32 %85, ptr %0, align 4, !tbaa !4
  br label %88

86:                                               ; preds = %81
  %.not.i42 = icmp eq i32 %82, 0
  br i1 %.not.i42, label %88, label %87

87:                                               ; preds = %86
  tail call void @lean_dec_ref_cold(ptr noundef nonnull %0) #7
  br label %88

lean_dec.exit33:                                  ; preds = %lean_inc.exit, %68, %70, %71
  %.not = icmp eq i64 %23, %4
  br i1 %.not, label %._crit_edge, label %12

88:                                               ; preds = %87, %86, %84, %lean_dec.exit32
  ret ptr %.030.lcssa
}